target datalayout = "e-m:e-p270:32:32-p271:32:32-p272:64:64-i64:64-i128:128-f80:128-n8:16:32:64-S128"
target triple = "x86_64-pc-linux-gnu"

%struct.rb_code_location_struct = type { %struct.rb_code_position_struct, %struct.rb_code_position_struct }
%struct.rb_code_position_struct = type { i32, i32 }
%struct.lex_context = type { i16, [2 x i8] }
%struct.parser_params = type { ptr, ptr, %struct.anon.12, i64, i64, i32, i32, i32, i32, i32, ptr, ptr, ptr, ptr, i32, i32, ptr, i64, ptr, ptr, ptr, ptr, i64, i64, %struct.anon.13, ptr, i32, ptr, i32, i64, %struct.lex_context, ptr, ptr, ptr, i32, i64, ptr, ptr, i32, ptr }
%struct.anon.12 = type { ptr, ptr, ptr, %struct.parser_string_buffer, ptr, ptr, ptr, ptr, ptr, ptr, i32, i32, i32, i32 }
%struct.parser_string_buffer = type { ptr, ptr }
%struct.anon.13 = type { ptr, i32, i32, i32, i32 }
%struct.RNode = type { i64, %struct.rb_code_location_struct, i32 }
%struct.RNode_LOOP = type { %struct.RNode, ptr, ptr, i64, %struct.rb_code_location_struct, %struct.rb_code_location_struct }

; Function Attrs: inlinehint nounwind sspstrong uwtable
define internal void @nd_set_line(ptr noundef %0, i64 noundef %1) #2 {
  %3 = alloca ptr, align 8
  %4 = alloca i64, align 8
  store ptr %0, ptr %3, align 8, !tbaa !65
  store i64 %1, ptr %4, align 8, !tbaa !12
  %5 = load ptr, ptr %3, align 8, !tbaa !65
  %6 = getelementptr inbounds nuw %struct.RNode, ptr %5, i32 0, i32 0
  %7 = load i64, ptr %6, align 8, !tbaa !110
  %8 = and i64 %7, 32767
  store i64 %8, ptr %6, align 8, !tbaa !110
  %9 = load i64, ptr %4, align 8, !tbaa !12
  %10 = and i64 %9, 562949953421311
  %11 = shl i64 %10, 15
  %12 = load ptr, ptr %3, align 8, !tbaa !65
  %13 = getelementptr inbounds nuw %struct.RNode, ptr %12, i32 0, i32 0
  %14 = load i64, ptr %13, align 8, !tbaa !110
  %15 = or i64 %14, %11
  store i64 %15, ptr %13, align 8, !tbaa !110
  ret void
}

; Function Attrs: nounwind sspstrong uwtable
define internal i32 @parser_get_node_id(ptr noundef %0) #0 {
  %2 = alloca ptr, align 8
  %3 = alloca i32, align 4
  store ptr %0, ptr %2, align 8, !tbaa !7
  call void @llvm.lifetime.start.p0(i64 4, ptr %3) #26
  %4 = load ptr, ptr %2, align 8, !tbaa !7
  %5 = getelementptr inbounds nuw %struct.parser_params, ptr %4, i32 0, i32 26
  %6 = load i32, ptr %5, align 8, !tbaa !575
  store i32 %6, ptr %3, align 4, !tbaa !34
  %7 = load ptr, ptr %2, align 8, !tbaa !7
  %8 = getelementptr inbounds nuw %struct.parser_params, ptr %7, i32 0, i32 26
  %9 = load i32, ptr %8, align 8, !tbaa !575
  %10 = add i32 %9, 1
  store i32 %10, ptr %8, align 8, !tbaa !575
  %11 = load i32, ptr %3, align 4, !tbaa !34
  call void @llvm.lifetime.end.p0(i64 4, ptr %3) #26
  ret i32 %11
}

; Function Attrs: nounwind sspstrong uwtable
define internal ptr @nd_set_loc(ptr noundef %0, ptr noundef %1) #0 {
  %3 = alloca ptr, align 8
  %4 = alloca ptr, align 8
  store ptr %0, ptr %3, align 8, !tbaa !65
  store ptr %1, ptr %4, align 8, !tbaa !39
  %5 = load ptr, ptr %3, align 8, !tbaa !65
  %6 = getelementptr inbounds nuw %struct.RNode, ptr %5, i32 0, i32 1
  %7 = load ptr, ptr %4, align 8, !tbaa !39
  call void @llvm.memcpy.p0.p0.i64(ptr align 8 %6, ptr align 4 %7, i64 16, i1 false), !tbaa.struct !33
  %8 = load ptr, ptr %3, align 8, !tbaa !65
  %9 = load ptr, ptr %4, align 8, !tbaa !39
  %10 = getelementptr inbounds nuw %struct.rb_code_location_struct, ptr %9, i32 0, i32 0
  %11 = getelementptr inbounds nuw %struct.rb_code_position_struct, ptr %10, i32 0, i32 0
  %12 = load i32, ptr %11, align 4, !tbaa !173
  %13 = sext i32 %12 to i64
  call void @nd_set_line(ptr noundef %8, i64 noundef %13)
  %14 = load ptr, ptr %3, align 8, !tbaa !65
  ret ptr %14
}

; Function Attrs: nounwind sspstrong uwtable
define internal ptr @node_new_internal(ptr noundef %0, i32 noundef %1, i64 noundef %2, i64 noundef %3) #0 {
  %5 = alloca ptr, align 8
  %6 = alloca i32, align 4
  %7 = alloca i64, align 8
  %8 = alloca i64, align 8
  %9 = alloca ptr, align 8
  store ptr %0, ptr %5, align 8, !tbaa !7
  store i32 %1, ptr %6, align 4, !tbaa !34
  store i64 %2, ptr %7, align 8, !tbaa !12
  store i64 %3, ptr %8, align 8, !tbaa !12
  call void @llvm.lifetime.start.p0(i64 8, ptr %9) #26
  %10 = load ptr, ptr %5, align 8, !tbaa !7
  %11 = getelementptr inbounds nuw %struct.parser_params, ptr %10, i32 0, i32 25
  %12 = load ptr, ptr %11, align 8, !tbaa !107
  %13 = load i32, ptr %6, align 4, !tbaa !34
  %14 = load i64, ptr %7, align 8, !tbaa !12
  %15 = load i64, ptr %8, align 8, !tbaa !12
  %16 = call ptr @rb_ast_newnode(ptr noundef %12, i32 noundef %13, i64 noundef %14, i64 noundef %15)
  store ptr %16, ptr %9, align 8, !tbaa !65
  %17 = load ptr, ptr %9, align 8, !tbaa !65
  %18 = load i32, ptr %6, align 4, !tbaa !34
  call void @rb_node_init(ptr noundef %17, i32 noundef %18)
  %19 = load ptr, ptr %9, align 8, !tbaa !65
  call void @llvm.lifetime.end.p0(i64 8, ptr %9) #26
  ret ptr %19
}

; Function Attrs: nounwind sspstrong uwtable
define internal ptr @node_newnode(ptr noundef %0, i32 noundef %1, i64 noundef %2, i64 noundef %3, ptr noundef %4) #0 {
  %6 = alloca ptr, align 8
  %7 = alloca i32, align 4
  %8 = alloca i64, align 8
  %9 = alloca i64, align 8
  %10 = alloca ptr, align 8
  %11 = alloca ptr, align 8
  store ptr %0, ptr %6, align 8, !tbaa !7
  store i32 %1, ptr %7, align 4, !tbaa !34
  store i64 %2, ptr %8, align 8, !tbaa !12
  store i64 %3, ptr %9, align 8, !tbaa !12
  store ptr %4, ptr %10, align 8, !tbaa !39
  call void @llvm.lifetime.start.p0(i64 8, ptr %11) #26
  %12 = load ptr, ptr %6, align 8, !tbaa !7
  %13 = load i32, ptr %7, align 4, !tbaa !34
  %14 = load i64, ptr %8, align 8, !tbaa !12
  %15 = load i64, ptr %9, align 8, !tbaa !12
  %16 = call ptr @node_new_internal(ptr noundef %12, i32 noundef %13, i64 noundef %14, i64 noundef %15)
  store ptr %16, ptr %11, align 8, !tbaa !65
  %17 = load ptr, ptr %11, align 8, !tbaa !65
  %18 = load ptr, ptr %10, align 8, !tbaa !39
  %19 = call ptr @nd_set_loc(ptr noundef %17, ptr noundef %18)
  %20 = load ptr, ptr %6, align 8, !tbaa !7
  %21 = call i32 @parser_get_node_id(ptr noundef %20)
  %22 = load ptr, ptr %11, align 8, !tbaa !65
  %23 = getelementptr inbounds nuw %struct.RNode, ptr %22, i32 0, i32 2
  store i32 %21, ptr %23, align 8, !tbaa !641
  %24 = load ptr, ptr %11, align 8, !tbaa !65
  call void @llvm.lifetime.end.p0(i64 8, ptr %11) #26
  ret ptr %24
}

; Function Attrs: nounwind sspstrong uwtable
define internal ptr @rb_node_until_new(ptr noundef %0, ptr noundef %1, ptr noundef %2, i64 noundef %3, ptr noundef %4, ptr noundef %5, ptr noundef %6) #0 {
  %8 = alloca ptr, align 8
  %9 = alloca ptr, align 8
  %10 = alloca ptr, align 8
  %11 = alloca i64, align 8
  %12 = alloca ptr, align 8
  %13 = alloca ptr, align 8
  %14 = alloca ptr, align 8
  %15 = alloca ptr, align 8
  store ptr %0, ptr %8, align 8, !tbaa !7
  store ptr %1, ptr %9, align 8, !tbaa !65
  store ptr %2, ptr %10, align 8, !tbaa !65
  store i64 %3, ptr %11, align 8, !tbaa !12
  store ptr %4, ptr %12, align 8, !tbaa !39
  store ptr %5, ptr %13, align 8, !tbaa !39
  store ptr %6, ptr %14, align 8, !tbaa !39
  call void @llvm.lifetime.start.p0(i64 8, ptr %15) #26
  %16 = load ptr, ptr %8, align 8, !tbaa !7
  %17 = load ptr, ptr %12, align 8, !tbaa !39
  %18 = call ptr @node_newnode(ptr noundef %16, i32 noundef 10, i64 noundef 88, i64 noundef 8, ptr noundef %17)
  store ptr %18, ptr %15, align 8, !tbaa !226
  %19 = load ptr, ptr %9, align 8, !tbaa !65
  %20 = load ptr, ptr %15, align 8, !tbaa !226
  %21 = getelementptr inbounds nuw %struct.RNode_LOOP, ptr %20, i32 0, i32 1
  store ptr %19, ptr %21, align 8, !tbaa !228
  %22 = load ptr, ptr %10, align 8, !tbaa !65
  %23 = load ptr, ptr %15, align 8, !tbaa !226
  %24 = getelementptr inbounds nuw %struct.RNode_LOOP, ptr %23, i32 0, i32 2
  store ptr %22, ptr %24, align 8, !tbaa !230
  %25 = load i64, ptr %11, align 8, !tbaa !12
  %26 = load ptr, ptr %15, align 8, !tbaa !226
  %27 = getelementptr inbounds nuw %struct.RNode_LOOP, ptr %26, i32 0, i32 3
  store i64 %25, ptr %27, align 8, !tbaa !231
  %28 = load ptr, ptr %15, align 8, !tbaa !226
  %29 = getelementptr inbounds nuw %struct.RNode_LOOP, ptr %28, i32 0, i32 4
  %30 = load ptr, ptr %13, align 8, !tbaa !39
  call void @llvm.memcpy.p0.p0.i64(ptr align 8 %29, ptr align 4 %30, i64 16, i1 false), !tbaa.struct !33
  %31 = load ptr, ptr %15, align 8, !tbaa !226
  %32 = getelementptr inbounds nuw %struct.RNode_LOOP, ptr %31, i32 0, i32 5
  %33 = load ptr, ptr %14, align 8, !tbaa !39
  call void @llvm.memcpy.p0.p0.i64(ptr align 8 %32, ptr align 4 %33, i64 16, i1 false), !tbaa.struct !33
  %34 = load ptr, ptr %15, align 8, !tbaa !226
  call void @llvm.lifetime.end.p0(i64 8, ptr %15) #26
  ret ptr %34
}